target datalayout = "e-m:e-p270:32:32-p271:32:32-p272:64:64-i64:64-i128:128-f80:128-n8:16:32:64-S128"
target triple = "x86_64-pc-linux-gnu"

%"struct.glslang::TSourceLoc" = type { ptr, i32, i32, i32 }
%"class.glslang::TPpToken" = type <{ %"struct.glslang::TSourceLoc", i8, i8, [6 x i8], %union.anon.79, [1025 x i8], [7 x i8] }>
%union.anon.79 = type { double }
%"class.glslang::TPpContext" = type <{ ptr, %"class.glslang::TMap", %"class.glslang::TStringAtomMap", ptr, i32, [4 x i8], ptr, ptr, i32, i32, i32, [4 x i8], ptr, %"class.std::vector.14", %"class.std::vector.16", i32, [65 x i8], [3 x i8], i32, [4 x i8], %"class.std::vector.21", i8, i8, [6 x i8], ptr, i8, [7 x i8], %"class.std::__cxx11::basic_string.26", %"class.std::stack", %"class.std::__cxx11::basic_string.26", %"class.std::__cxx11::basic_istringstream", i8, [7 x i8] }>
%"class.glslang::TMap" = type { %"class.std::map" }
%"class.std::map" = type { %"class.std::_Rb_tree" }
%"class.std::_Rb_tree" = type { %"struct.std::_Rb_tree<int, std::pair<const int, glslang::TPpContext::MacroSymbol>, std::_Select1st<std::pair<const int, glslang::TPpContext::MacroSymbol>>, std::less<int>, glslang::pool_allocator<std::pair<const int, glslang::TPpContext::MacroSymbol>>>::_Rb_tree_impl" }
%"struct.std::_Rb_tree<int, std::pair<const int, glslang::TPpContext::MacroSymbol>, std::_Select1st<std::pair<const int, glslang::TPpContext::MacroSymbol>>, std::less<int>, glslang::pool_allocator<std::pair<const int, glslang::TPpContext::MacroSymbol>>>::_Rb_tree_impl" = type { %"class.glslang::pool_allocator.4", %"struct.std::_Rb_tree_key_compare", %"struct.std::_Rb_tree_header" }
%"class.glslang::pool_allocator.4" = type { ptr }
%"struct.std::_Rb_tree_key_compare" = type { %"struct.std::less" }
%"struct.std::less" = type { i8 }
%"struct.std::_Rb_tree_header" = type { %"struct.std::_Rb_tree_node_base", i64 }
%"struct.std::_Rb_tree_node_base" = type { i32, ptr, ptr, ptr }
%"class.glslang::TStringAtomMap" = type { %"class.glslang::TUnorderedMap", %"class.glslang::TVector.9", i32, %"class.std::__cxx11::basic_string" }
%"class.glslang::TUnorderedMap" = type { %"class.std::unordered_map" }
%"class.std::unordered_map" = type { %"class.std::_Hashtable" }
%"class.std::_Hashtable" = type { %"struct.std::__detail::_Hashtable_alloc", ptr, i64, %"struct.std::__detail::_Hash_node_base", i64, %"struct.std::__detail::_Prime_rehash_policy", ptr }
%"struct.std::__detail::_Hashtable_alloc" = type { %"struct.std::__detail::_Hashtable_ebo_helper.7" }
%"struct.std::__detail::_Hashtable_ebo_helper.7" = type { %"class.glslang::pool_allocator.8" }
%"class.glslang::pool_allocator.8" = type { ptr }
%"struct.std::__detail::_Hash_node_base" = type { ptr }
%"struct.std::__detail::_Prime_rehash_policy" = type { float, i64 }
%"class.glslang::TVector.9" = type { %"class.std::vector.10" }
%"class.std::vector.10" = type { %"struct.std::_Vector_base.11" }
%"struct.std::_Vector_base.11" = type { %"struct.std::_Vector_base<const std::__cxx11::basic_string<char, std::char_traits<char>, glslang::pool_allocator<char>> *, glslang::pool_allocator<const std::__cxx11::basic_string<char, std::char_traits<char>, glslang::pool_allocator<char>> *>>::_Vector_impl" }
%"struct.std::_Vector_base<const std::__cxx11::basic_string<char, std::char_traits<char>, glslang::pool_allocator<char>> *, glslang::pool_allocator<const std::__cxx11::basic_string<char, std::char_traits<char>, glslang::pool_allocator<char>> *>>::_Vector_impl" = type { %"class.glslang::pool_allocator.12", %"struct.std::_Vector_base<const std::__cxx11::basic_string<char, std::char_traits<char>, glslang::pool_allocator<char>> *, glslang::pool_allocator<const std::__cxx11::basic_string<char, std::char_traits<char>, glslang::pool_allocator<char>> *>>::_Vector_impl_data" }
%"class.glslang::pool_allocator.12" = type { ptr }
%"struct.std::_Vector_base<const std::__cxx11::basic_string<char, std::char_traits<char>, glslang::pool_allocator<char>> *, glslang::pool_allocator<const std::__cxx11::basic_string<char, std::char_traits<char>, glslang::pool_allocator<char>> *>>::_Vector_impl_data" = type { ptr, ptr, ptr }
%"class.std::__cxx11::basic_string" = type { %"struct.std::__cxx11::basic_string<char, std::char_traits<char>, glslang::pool_allocator<char>>::_Alloc_hider", i64, %union.anon }
%"struct.std::__cxx11::basic_string<char, std::char_traits<char>, glslang::pool_allocator<char>>::_Alloc_hider" = type { %"class.glslang::pool_allocator.13", ptr }
%"class.glslang::pool_allocator.13" = type { ptr }
%union.anon = type { i64, [8 x i8] }
%"class.std::vector.14" = type { %"struct.std::_Vector_base.15" }
%"struct.std::_Vector_base.15" = type { %"struct.std::_Vector_base<int, std::allocator<int>>::_Vector_impl" }
%"struct.std::_Vector_base<int, std::allocator<int>>::_Vector_impl" = type { %"struct.std::_Vector_base<int, std::allocator<int>>::_Vector_impl_data" }
%"struct.std::_Vector_base<int, std::allocator<int>>::_Vector_impl_data" = type { ptr, ptr, ptr }
%"class.std::vector.16" = type { %"struct.std::_Vector_base.17" }
%"struct.std::_Vector_base.17" = type { %"struct.std::_Vector_base<glslang::TSourceLoc, std::allocator<glslang::TSourceLoc>>::_Vector_impl" }
%"struct.std::_Vector_base<glslang::TSourceLoc, std::allocator<glslang::TSourceLoc>>::_Vector_impl" = type { %"struct.std::_Vector_base<glslang::TSourceLoc, std::allocator<glslang::TSourceLoc>>::_Vector_impl_data" }
%"struct.std::_Vector_base<glslang::TSourceLoc, std::allocator<glslang::TSourceLoc>>::_Vector_impl_data" = type { ptr, ptr, ptr }
%"class.std::vector.21" = type { %"struct.std::_Vector_base.22" }
%"struct.std::_Vector_base.22" = type { %"struct.std::_Vector_base<glslang::TPpContext::tInput *, std::allocator<glslang::TPpContext::tInput *>>::_Vector_impl" }
%"struct.std::_Vector_base<glslang::TPpContext::tInput *, std::allocator<glslang::TPpContext::tInput *>>::_Vector_impl" = type { %"struct.std::_Vector_base<glslang::TPpContext::tInput *, std::allocator<glslang::TPpContext::tInput *>>::_Vector_impl_data" }
%"struct.std::_Vector_base<glslang::TPpContext::tInput *, std::allocator<glslang::TPpContext::tInput *>>::_Vector_impl_data" = type { ptr, ptr, ptr }
%"class.std::stack" = type { %"class.std::deque" }
%"class.std::deque" = type { %"class.std::_Deque_base" }
%"class.std::_Deque_base" = type { %"struct.std::_Deque_base<glslang::TShader::Includer::IncludeResult *, std::allocator<glslang::TShader::Includer::IncludeResult *>>::_Deque_impl" }
%"struct.std::_Deque_base<glslang::TShader::Includer::IncludeResult *, std::allocator<glslang::TShader::Includer::IncludeResult *>>::_Deque_impl" = type { %"struct.std::_Deque_base<glslang::TShader::Includer::IncludeResult *, std::allocator<glslang::TShader::Includer::IncludeResult *>>::_Deque_impl_data" }
%"struct.std::_Deque_base<glslang::TShader::Includer::IncludeResult *, std::allocator<glslang::TShader::Includer::IncludeResult *>>::_Deque_impl_data" = type { ptr, i64, %"struct.std::_Deque_iterator", %"struct.std::_Deque_iterator" }
%"struct.std::_Deque_iterator" = type { ptr, ptr, ptr, ptr }
%"class.std::__cxx11::basic_string.26" = type { %"struct.std::__cxx11::basic_string<char>::_Alloc_hider", i64, %union.anon.30 }
%"struct.std::__cxx11::basic_string<char>::_Alloc_hider" = type { ptr }
%union.anon.30 = type { i64, [8 x i8] }
%"class.std::__cxx11::basic_istringstream" = type { %"class.std::basic_istream.base", %"class.std::__cxx11::basic_stringbuf", %"class.std::basic_ios" }
%"class.std::basic_istream.base" = type { ptr, i64 }
%"class.std::__cxx11::basic_stringbuf" = type { %"class.std::basic_streambuf", i32, %"class.std::__cxx11::basic_string.26" }
%"class.std::basic_streambuf" = type { ptr, ptr, ptr, ptr, ptr, ptr, ptr, %"class.std::locale" }
%"class.std::locale" = type { ptr }
%"class.std::basic_ios" = type { %"class.std::ios_base", ptr, i8, i8, ptr, ptr, ptr, ptr }
%"class.std::ios_base" = type { ptr, i64, i64, i32, i32, i32, ptr, %"struct.std::ios_base::_Words", [8 x %"struct.std::ios_base::_Words"], i32, ptr, %"class.std::locale" }
%"struct.std::ios_base::_Words" = type { ptr, i64 }

@.str.2 = private unnamed_addr constant [1 x i8] zeroinitializer, align 1
@.str.39 = private unnamed_addr constant [3 x i8] c"%s\00", align 1
@.str.59 = private unnamed_addr constant [29 x i8] c"extension name not specified\00", align 1
@.str.60 = private unnamed_addr constant [11 x i8] c"#extension\00", align 1
@.str.61 = private unnamed_addr constant [24 x i8] c"extension name expected\00", align 1
@.str.62 = private unnamed_addr constant [33 x i8] c"':' missing after extension name\00", align 1
@.str.63 = private unnamed_addr constant [37 x i8] c"behavior for extension not specified\00", align 1
@.str.64 = private unnamed_addr constant [33 x i8] c"extra tokens -- expected newline\00", align 1

; Function Attrs: mustprogress nounwind uwtable
define noundef i32 @_ZN7glslang10TPpContext12CPPextensionEPNS_8TPpTokenE(ptr noundef nonnull align 8 dereferenceable(969) %0, ptr noundef %1) #0 align 2 {
  %3 = alloca i32, align 4
  %4 = alloca ptr, align 8
  %5 = alloca ptr, align 8
  %6 = alloca i32, align 4
  %7 = alloca i32, align 4
  %8 = alloca [1025 x i8], align 16
  store ptr %0, ptr %4, align 8
  store ptr %1, ptr %5, align 8
  %9 = load ptr, ptr %4, align 8
  %10 = load ptr, ptr %5, align 8
  %11 = getelementptr inbounds %"class.glslang::TPpToken", ptr %10, i32 0, i32 0
  %12 = getelementptr inbounds %"struct.glslang::TSourceLoc", ptr %11, i32 0, i32 2
  %13 = load i32, ptr %12, align 4
  store i32 %13, ptr %6, align 4
  %14 = load ptr, ptr %5, align 8
  %15 = call noundef i32 @_ZN7glslang10TPpContext9scanTokenEPNS_8TPpTokenE(ptr noundef nonnull align 8 dereferenceable(969) %9, ptr noundef %14)
  store i32 %15, ptr %7, align 4
  %16 = load i32, ptr %7, align 4
  %17 = icmp eq i32 %16, 10
  br i1 %17, label %18, label %27

18:                                               ; preds = %2
  %19 = getelementptr inbounds %"class.glslang::TPpContext", ptr %9, i32 0, i32 12
  %20 = load ptr, ptr %19, align 8
  %21 = load ptr, ptr %5, align 8
  %22 = getelementptr inbounds %"class.glslang::TPpToken", ptr %21, i32 0, i32 0
  %23 = load ptr, ptr %20, align 8
  %24 = getelementptr inbounds ptr, ptr %23, i64 45
  %25 = load ptr, ptr %24, align 8
  call void (ptr, ptr, ptr, ptr, ptr, ...) %25(ptr noundef nonnull align 8 dereferenceable(1280) %20, ptr noundef nonnull align 8 dereferenceable(24) %22, ptr noundef @.str.59, ptr noundef @.str.60, ptr noundef @.str.2)
  %26 = load i32, ptr %7, align 4
  store i32 %26, ptr %3, align 4
  br label %108

27:                                               ; preds = %2
  %28 = load i32, ptr %7, align 4
  %29 = icmp ne i32 %28, 162
  br i1 %29, label %30, label %38

30:                                               ; preds = %27
  %31 = getelementptr inbounds %"class.glslang::TPpContext", ptr %9, i32 0, i32 12
  %32 = load ptr, ptr %31, align 8
  %33 = load ptr, ptr %5, align 8
  %34 = getelementptr inbounds %"class.glslang::TPpToken", ptr %33, i32 0, i32 0
  %35 = load ptr, ptr %32, align 8
  %36 = getelementptr inbounds ptr, ptr %35, i64 45
  %37 = load ptr, ptr %36, align 8
  call void (ptr, ptr, ptr, ptr, ptr, ...) %37(ptr noundef nonnull align 8 dereferenceable(1280) %32, ptr noundef nonnull align 8 dereferenceable(24) %34, ptr noundef @.str.61, ptr noundef @.str.60, ptr noundef @.str.2)
  br label %38

38:                                               ; preds = %30, %27
  %39 = getelementptr inbounds [1025 x i8], ptr %8, i64 0, i64 0
  %40 = load ptr, ptr %5, align 8
  %41 = getelementptr inbounds %"class.glslang::TPpToken", ptr %40, i32 0, i32 5
  %42 = getelementptr inbounds [1025 x i8], ptr %41, i64 0, i64 0
  %43 = call i32 (ptr, i64, ptr, ...) @snprintf(ptr noundef %39, i64 noundef 1025, ptr noundef @.str.39, ptr noundef %42) #12
  %44 = load ptr, ptr %5, align 8
  %45 = call noundef i32 @_ZN7glslang10TPpContext9scanTokenEPNS_8TPpTokenE(ptr noundef nonnull align 8 dereferenceable(969) %9, ptr noundef %44)
  store i32 %45, ptr %7, align 4
  %46 = load i32, ptr %7, align 4
  %47 = icmp ne i32 %46, 58
  br i1 %47, label %48, label %57

48:                                               ; preds = %38
  %49 = getelementptr inbounds %"class.glslang::TPpContext", ptr %9, i32 0, i32 12
  %50 = load ptr, ptr %49, align 8
  %51 = load ptr, ptr %5, align 8
  %52 = getelementptr inbounds %"class.glslang::TPpToken", ptr %51, i32 0, i32 0
  %53 = load ptr, ptr %50, align 8
  %54 = getelementptr inbounds ptr, ptr %53, i64 45
  %55 = load ptr, ptr %54, align 8
  call void (ptr, ptr, ptr, ptr, ptr, ...) %55(ptr noundef nonnull align 8 dereferenceable(1280) %50, ptr noundef nonnull align 8 dereferenceable(24) %52, ptr noundef @.str.62, ptr noundef @.str.60, ptr noundef @.str.2)
  %56 = load i32, ptr %7, align 4
  store i32 %56, ptr %3, align 4
  br label %108

57:                                               ; preds = %38
  %58 = load ptr, ptr %5, align 8
  %59 = call noundef i32 @_ZN7glslang10TPpContext9scanTokenEPNS_8TPpTokenE(ptr noundef nonnull align 8 dereferenceable(969) %9, ptr noundef %58)
  store i32 %59, ptr %7, align 4
  %60 = load i32, ptr %7, align 4
  %61 = icmp ne i32 %60, 162
  br i1 %61, label %62, label %71

62:                                               ; preds = %57
  %63 = getelementptr inbounds %"class.glslang::TPpContext", ptr %9, i32 0, i32 12
  %64 = load ptr, ptr %63, align 8
  %65 = load ptr, ptr %5, align 8
  %66 = getelementptr inbounds %"class.glslang::TPpToken", ptr %65, i32 0, i32 0
  %67 = load ptr, ptr %64, align 8
  %68 = getelementptr inbounds ptr, ptr %67, i64 45
  %69 = load ptr, ptr %68, align 8
  call void (ptr, ptr, ptr, ptr, ptr, ...) %69(ptr noundef nonnull align 8 dereferenceable(1280) %64, ptr noundef nonnull align 8 dereferenceable(24) %66, ptr noundef @.str.63, ptr noundef @.str.60, ptr noundef @.str.2)
  %70 = load i32, ptr %7, align 4
  store i32 %70, ptr %3, align 4
  br label %108

71:                                               ; preds = %57
  %72 = getelementptr inbounds %"class.glslang::TPpContext", ptr %9, i32 0, i32 12
  %73 = load ptr, ptr %72, align 8
  %74 = load i32, ptr %6, align 4
  %75 = getelementptr inbounds [1025 x i8], ptr %8, i64 0, i64 0
  %76 = load ptr, ptr %5, align 8
  %77 = getelementptr inbounds %"class.glslang::TPpToken", ptr %76, i32 0, i32 5
  %78 = getelementptr inbounds [1025 x i8], ptr %77, i64 0, i64 0
  %79 = load ptr, ptr %73, align 8
  %80 = getelementptr inbounds ptr, ptr %79, i64 10
  %81 = load ptr, ptr %80, align 8
  call void %81(ptr noundef nonnull align 8 dereferenceable(224) %73, i32 noundef %74, ptr noundef %75, ptr noundef %78)
  %82 = getelementptr inbounds %"class.glslang::TPpContext", ptr %9, i32 0, i32 12
  %83 = load ptr, ptr %82, align 8
  %84 = load i32, ptr %6, align 4
  %85 = getelementptr inbounds [1025 x i8], ptr %8, i64 0, i64 0
  %86 = load ptr, ptr %5, align 8
  %87 = getelementptr inbounds %"class.glslang::TPpToken", ptr %86, i32 0, i32 5
  %88 = getelementptr inbounds [1025 x i8], ptr %87, i64 0, i64 0
  %89 = load ptr, ptr %83, align 8
  %90 = getelementptr inbounds ptr, ptr %89, i64 61
  %91 = load ptr, ptr %90, align 8
  call void %91(ptr noundef nonnull align 8 dereferenceable(1280) %83, i32 noundef %84, ptr noundef %85, ptr noundef %88)
  %92 = load ptr, ptr %5, align 8
  %93 = call noundef i32 @_ZN7glslang10TPpContext9scanTokenEPNS_8TPpTokenE(ptr noundef nonnull align 8 dereferenceable(969) %9, ptr noundef %92)
  store i32 %93, ptr %7, align 4
  %94 = load i32, ptr %7, align 4
  %95 = icmp eq i32 %94, 10
  br i1 %95, label %96, label %98

96:                                               ; preds = %71
  %97 = load i32, ptr %7, align 4
  store i32 %97, ptr %3, align 4
  br label %108

98:                                               ; preds = %71
  %99 = getelementptr inbounds %"class.glslang::TPpContext", ptr %9, i32 0, i32 12
  %100 = load ptr, ptr %99, align 8
  %101 = load ptr, ptr %5, align 8
  %102 = getelementptr inbounds %"class.glslang::TPpToken", ptr %101, i32 0, i32 0
  %103 = load ptr, ptr %100, align 8
  %104 = getelementptr inbounds ptr, ptr %103, i64 45
  %105 = load ptr, ptr %104, align 8
  call void (ptr, ptr, ptr, ptr, ptr, ...) %105(ptr noundef nonnull align 8 dereferenceable(1280) %100, ptr noundef nonnull align 8 dereferenceable(24) %102, ptr noundef @.str.64, ptr noundef @.str.60, ptr noundef @.str.2)
  br label %106

106:                                              ; preds = %98
  %107 = load i32, ptr %7, align 4
  store i32 %107, ptr %3, align 4
  br label %108

108:                                              ; preds = %106, %96, %62, %48, %18
  %109 = load i32, ptr %3, align 4
  ret i32 %109
}