; Function Attrs: mustprogress nounwind uwtable
define noundef i32 @_ZN7glslang10TPpContext12CPPextensionEPNS_8TPpTokenE(ptr noundef nonnull align 8 dereferenceable(969) %0, ptr noundef %1) local_unnamed_addr #0 align 2 {
  %3 = alloca [1025 x i8], align 16
  %4 = getelementptr inbounds i8, ptr %1, i64 12
  %5 = load i32, ptr %4, align 4
  %6 = tail call noundef i32 @_ZN7glslang10TPpContext9scanTokenEPNS_8TPpTokenE(ptr noundef nonnull align 8 dereferenceable(969) %0, ptr noundef %1)
  switch i32 %6, label %13 [
    i32 10, label %7
    i32 162, label %19
  ]

7:                                                ; preds = %2
  %8 = getelementptr inbounds i8, ptr %0, i64 256
  %9 = load ptr, ptr %8, align 8
  %10 = load ptr, ptr %9, align 8
  %11 = getelementptr inbounds i8, ptr %10, i64 360
  %12 = load ptr, ptr %11, align 8
  tail call void (ptr, ptr, ptr, ptr, ptr, ...) %12(ptr noundef nonnull align 8 dereferenceable(1280) %9, ptr noundef nonnull align 8 dereferenceable(24) %1, ptr noundef nonnull @.str.59, ptr noundef nonnull @.str.60, ptr noundef nonnull @.str.2) #17
  br label %51

13:                                               ; preds = %2
  %14 = getelementptr inbounds i8, ptr %0, i64 256
  %15 = load ptr, ptr %14, align 8
  %16 = load ptr, ptr %15, align 8
  %17 = getelementptr inbounds i8, ptr %16, i64 360
  %18 = load ptr, ptr %17, align 8
  tail call void (ptr, ptr, ptr, ptr, ptr, ...) %18(ptr noundef nonnull align 8 dereferenceable(1280) %15, ptr noundef nonnull align 8 dereferenceable(24) %1, ptr noundef nonnull @.str.61, ptr noundef nonnull @.str.60, ptr noundef nonnull @.str.2) #17
  br label %19

19:                                               ; preds = %2, %13
  %20 = getelementptr inbounds i8, ptr %1, i64 40
  %21 = call i32 (ptr, i64, ptr, ...) @snprintf(ptr noundef nonnull dereferenceable(1) %3, i64 noundef 1025, ptr noundef nonnull @.str.39, ptr noundef nonnull %20) #17
  %22 = tail call noundef i32 @_ZN7glslang10TPpContext9scanTokenEPNS_8TPpTokenE(ptr noundef nonnull align 8 dereferenceable(969) %0, ptr noundef nonnull %1)
  %.not31 = icmp eq i32 %22, 58
  br i1 %.not31, label %29, label %23

23:                                               ; preds = %19
  %24 = getelementptr inbounds i8, ptr %0, i64 256
  %25 = load ptr, ptr %24, align 8
  %26 = load ptr, ptr %25, align 8
  %27 = getelementptr inbounds i8, ptr %26, i64 360
  %28 = load ptr, ptr %27, align 8
  tail call void (ptr, ptr, ptr, ptr, ptr, ...) %28(ptr noundef nonnull align 8 dereferenceable(1280) %25, ptr noundef nonnull align 8 dereferenceable(24) %1, ptr noundef nonnull @.str.62, ptr noundef nonnull @.str.60, ptr noundef nonnull @.str.2) #17
  br label %51

29:                                               ; preds = %19
  %30 = tail call noundef i32 @_ZN7glslang10TPpContext9scanTokenEPNS_8TPpTokenE(ptr noundef nonnull align 8 dereferenceable(969) %0, ptr noundef nonnull %1)
  %.not32 = icmp eq i32 %30, 162
  %31 = getelementptr inbounds i8, ptr %0, i64 256
  %32 = load ptr, ptr %31, align 8
  %33 = load ptr, ptr %32, align 8
  br i1 %.not32, label %37, label %34

34:                                               ; preds = %29
  %35 = getelementptr inbounds i8, ptr %33, i64 360
  %36 = load ptr, ptr %35, align 8
  tail call void (ptr, ptr, ptr, ptr, ptr, ...) %36(ptr noundef nonnull align 8 dereferenceable(1280) %32, ptr noundef nonnull align 8 dereferenceable(24) %1, ptr noundef nonnull @.str.63, ptr noundef nonnull @.str.60, ptr noundef nonnull @.str.2) #17
  br label %51

37:                                               ; preds = %29
  %38 = getelementptr inbounds i8, ptr %33, i64 80
  %39 = load ptr, ptr %38, align 8
  call void %39(ptr noundef nonnull align 8 dereferenceable(224) %32, i32 noundef %5, ptr noundef nonnull %3, ptr noundef nonnull %20) #17
  %40 = load ptr, ptr %31, align 8
  %41 = load ptr, ptr %40, align 8
  %42 = getelementptr inbounds i8, ptr %41, i64 488
  %43 = load ptr, ptr %42, align 8
  call void %43(ptr noundef nonnull align 8 dereferenceable(1280) %40, i32 noundef %5, ptr noundef nonnull %3, ptr noundef nonnull %20) #17
  %44 = call noundef i32 @_ZN7glslang10TPpContext9scanTokenEPNS_8TPpTokenE(ptr noundef nonnull align 8 dereferenceable(969) %0, ptr noundef nonnull %1)
  %45 = icmp eq i32 %44, 10
  br i1 %45, label %51, label %46

46:                                               ; preds = %37
  %47 = load ptr, ptr %31, align 8
  %48 = load ptr, ptr %47, align 8
  %49 = getelementptr inbounds i8, ptr %48, i64 360
  %50 = load ptr, ptr %49, align 8
  call void (ptr, ptr, ptr, ptr, ptr, ...) %50(ptr noundef nonnull align 8 dereferenceable(1280) %47, ptr noundef nonnull align 8 dereferenceable(24) %1, ptr noundef nonnull @.str.64, ptr noundef nonnull @.str.60, ptr noundef nonnull @.str.2) #17
  br label %51

51:                                               ; preds = %37, %46, %34, %23, %7
  %.0 = phi i32 [ 10, %7 ], [ %22, %23 ], [ %30, %34 ], [ %44, %46 ], [ 10, %37 ]
  ret i32 %.0
}